; Function Attrs: mustprogress uwtable
define hidden void @_ZNK3sls7bv_eval8add_p2_1ERKNS_12bv_valuationERNS_5bvectE(ptr noundef nonnull align 8 dereferenceable(865) %0, ptr noundef nonnull align 8 dereferenceable(184) %1, ptr noundef nonnull align 8 dereferenceable(20) %2) local_unnamed_addr #3 align 2 {
  %4 = getelementptr inbounds nuw i8, ptr %0, i64 672
  %5 = getelementptr inbounds nuw i8, ptr %1, i64 152
  %6 = load i32, ptr %5, align 8, !tbaa !128
  %7 = add i32 %6, -1
  %8 = lshr i32 %7, 5
  %9 = load ptr, ptr %4, align 8, !tbaa !97
  %10 = zext nneg i32 %8 to i64
  %11 = getelementptr inbounds nuw i32, ptr %9, i64 %10
  %12 = load i32, ptr %11, align 4, !tbaa !102
  %13 = and i32 %7, 31
  %14 = shl nuw i32 1, %13
  %15 = or i32 %14, %12
  store i32 %15, ptr %11, align 4, !tbaa !102
  %16 = tail call noundef zeroext i1 @_ZNK3sls12bv_valuation7set_addERNS_5bvectERKS1_S4_(ptr noundef nonnull align 8 dereferenceable(184) %1, ptr noundef nonnull align 8 dereferenceable(20) %2, ptr noundef nonnull align 8 dereferenceable(20) %1, ptr noundef nonnull align 8 dereferenceable(20) %4)
  %17 = load i32, ptr %5, align 8, !tbaa !128
  %18 = add i32 %17, -1
  %19 = lshr i32 %18, 5
  %20 = load ptr, ptr %4, align 8, !tbaa !97
  %21 = zext nneg i32 %19 to i64
  %22 = getelementptr inbounds nuw i32, ptr %20, i64 %21
  %23 = load i32, ptr %22, align 4, !tbaa !102
  %24 = and i32 %18, 31
  %25 = shl nuw i32 1, %24
  %26 = xor i32 %25, -1
  %27 = and i32 %23, %26
  store i32 %27, ptr %22, align 4, !tbaa !102
  %28 = getelementptr inbounds nuw i8, ptr %1, i64 148
  %29 = load i32, ptr %28, align 4, !tbaa !157
  %30 = getelementptr inbounds nuw i8, ptr %1, i64 156
  %31 = load i32, ptr %30, align 4, !tbaa !131
  %32 = add i32 %31, -1
  %33 = load ptr, ptr %2, align 8, !tbaa !97
  %34 = zext i32 %32 to i64
  %35 = getelementptr inbounds nuw i32, ptr %33, i64 %34
  %36 = load i32, ptr %35, align 4, !tbaa !102
  %37 = and i32 %36, %29
  store i32 %37, ptr %35, align 4, !tbaa !102
  ret void
}